; ModuleID = '37/397.c'
source_filename = "37/397.c"
target datalayout = "e-m:e-p270:32:32-p271:32:32-p272:64:64-i64:64-f80:128-n8:16:32:64-S128"
target triple = "x86_64-pc-linux-gnu"

@.str = private unnamed_addr constant [3 x i8] c"%d\00", align 1
@.str.1 = private unnamed_addr constant [3 x i8] c"%s\00", align 1
@.str.2 = private unnamed_addr constant [5 x i8] c"%c%s\00", align 1
@.str.3 = private unnamed_addr constant [1 x i8] zeroinitializer, align 1
@.str.4 = private unnamed_addr constant [2 x i8] c"\0A\00", align 1
@.str.5 = private unnamed_addr constant [5 x i8] c"no%s\00", align 1

; Function Attrs: noinline nounwind uwtable
define dso_local void @main() #0 {
  %1 = alloca i32, align 4
  %2 = alloca i32, align 4
  %3 = alloca i32, align 4
  %4 = alloca i32, align 4
  %5 = alloca i32, align 4
  %6 = alloca i32*, align 8
  %7 = alloca i8*, align 8
  %8 = alloca i8*, align 8
  %9 = call noalias i8* @malloc(i64 100) #3
  store i8* %9, i8** %8, align 8
  store i8* %9, i8** %7, align 8
  %10 = call noalias i8* @malloc(i64 400) #3
  %11 = bitcast i8* %10 to i32*
  store i32* %11, i32** %6, align 8
  %12 = call i32 (i8*, ...) @__isoc99_scanf(i8* getelementptr inbounds ([3 x i8], [3 x i8]* @.str, i64 0, i64 0), i32* %1)
  store i32 0, i32* %2, align 4
  br label %13

13:                                               ; preds = %112, %0
  %14 = load i32, i32* %2, align 4
  %15 = load i32, i32* %1, align 4
  %16 = icmp slt i32 %14, %15
  br i1 %16, label %17, label %115

17:                                               ; preds = %13
  %18 = load i8*, i8** %7, align 8
  %19 = call i32 (i8*, ...) @__isoc99_scanf(i8* getelementptr inbounds ([3 x i8], [3 x i8]* @.str.1, i64 0, i64 0), i8* %18)
  store i32 1, i32* %4, align 4
  store i32 1, i32* %3, align 4
  br label %20

20:                                               ; preds = %28, %17
  %21 = load i32, i32* %3, align 4
  %22 = icmp slt i32 %21, 27
  br i1 %22, label %23, label %31

23:                                               ; preds = %20
  %24 = load i32*, i32** %6, align 8
  %25 = load i32, i32* %3, align 4
  %26 = sext i32 %25 to i64
  %27 = getelementptr inbounds i32, i32* %24, i64 %26
  store i32 0, i32* %27, align 4
  br label %28

28:                                               ; preds = %23
  %29 = load i32, i32* %3, align 4
  %30 = add nsw i32 %29, 1
  store i32 %30, i32* %3, align 4
  br label %20

31:                                               ; preds = %20
  %32 = load i8*, i8** %8, align 8
  store i8* %32, i8** %7, align 8
  store i32 0, i32* %3, align 4
  br label %33

33:                                               ; preds = %59, %31
  %34 = load i8*, i8** %7, align 8
  %35 = load i32, i32* %3, align 4
  %36 = sext i32 %35 to i64
  %37 = getelementptr inbounds i8, i8* %34, i64 %36
  %38 = load i8, i8* %37, align 1
  %39 = sext i8 %38 to i32
  %40 = icmp ne i32 %39, 0
  br i1 %40, label %41, label %62

41:                                               ; preds = %33
  %42 = load i8*, i8** %7, align 8
  %43 = load i32, i32* %3, align 4
  %44 = sext i32 %43 to i64
  %45 = getelementptr inbounds i8, i8* %42, i64 %44
  %46 = load i8, i8* %45, align 1
  %47 = sext i8 %46 to i32
  %48 = sub nsw i32 %47, 96
  store i32 %48, i32* %5, align 4
  %49 = load i32*, i32** %6, align 8
  %50 = load i32, i32* %5, align 4
  %51 = sext i32 %50 to i64
  %52 = getelementptr inbounds i32, i32* %49, i64 %51
  %53 = load i32, i32* %52, align 4
  %54 = add nsw i32 %53, 1
  %55 = load i32*, i32** %6, align 8
  %56 = load i32, i32* %5, align 4
  %57 = sext i32 %56 to i64
  %58 = getelementptr inbounds i32, i32* %55, i64 %57
  store i32 %54, i32* %58, align 4
  br label %59

59:                                               ; preds = %41
  %60 = load i32, i32* %3, align 4
  %61 = add nsw i32 %60, 1
  store i32 %61, i32* %3, align 4
  br label %33

62:                                               ; preds = %33
  %63 = load i8*, i8** %8, align 8
  store i8* %63, i8** %7, align 8
  store i32 0, i32* %3, align 4
  br label %64

64:                                               ; preds = %97, %62
  %65 = load i8*, i8** %7, align 8
  %66 = load i32, i32* %3, align 4
  %67 = sext i32 %66 to i64
  %68 = getelementptr inbounds i8, i8* %65, i64 %67
  %69 = load i8, i8* %68, align 1
  %70 = sext i8 %69 to i32
  %71 = icmp ne i32 %70, 0
  br i1 %71, label %72, label %100

72:                                               ; preds = %64
  %73 = load i8*, i8** %7, align 8
  %74 = load i32, i32* %3, align 4
  %75 = sext i32 %74 to i64
  %76 = getelementptr inbounds i8, i8* %73, i64 %75
  %77 = load i8, i8* %76, align 1
  %78 = sext i8 %77 to i32
  %79 = sub nsw i32 %78, 96
  store i32 %79, i32* %5, align 4
  %80 = load i32*, i32** %6, align 8
  %81 = load i32, i32* %5, align 4
  %82 = sext i32 %81 to i64
  %83 = getelementptr inbounds i32, i32* %80, i64 %82
  %84 = load i32, i32* %83, align 4
  %85 = icmp eq i32 %84, 1
  br i1 %85, label %86, label %96

86:                                               ; preds = %72
  %87 = load i32, i32* %5, align 4
  %88 = add nsw i32 %87, 96
  %89 = load i32, i32* %2, align 4
  %90 = load i32, i32* %1, align 4
  %91 = sub nsw i32 %90, 1
  %92 = icmp eq i32 %89, %91
  %93 = zext i1 %92 to i64
  %94 = select i1 %92, i8* getelementptr inbounds ([1 x i8], [1 x i8]* @.str.3, i64 0, i64 0), i8* getelementptr inbounds ([2 x i8], [2 x i8]* @.str.4, i64 0, i64 0)
  %95 = call i32 (i8*, ...) @printf(i8* getelementptr inbounds ([5 x i8], [5 x i8]* @.str.2, i64 0, i64 0), i32 %88, i8* %94)
  store i32 0, i32* %4, align 4
  br label %100

96:                                               ; preds = %72
  br label %97

97:                                               ; preds = %96
  %98 = load i32, i32* %3, align 4
  %99 = add nsw i32 %98, 1
  store i32 %99, i32* %3, align 4
  br label %64

100:                                              ; preds = %86, %64
  %101 = load i32, i32* %4, align 4
  %102 = icmp eq i32 %101, 1
  br i1 %102, label %103, label %111

103:                                              ; preds = %100
  %104 = load i32, i32* %2, align 4
  %105 = load i32, i32* %1, align 4
  %106 = sub nsw i32 %105, 1
  %107 = icmp eq i32 %104, %106
  %108 = zext i1 %107 to i64
  %109 = select i1 %107, i8* getelementptr inbounds ([1 x i8], [1 x i8]* @.str.3, i64 0, i64 0), i8* getelementptr inbounds ([2 x i8], [2 x i8]* @.str.4, i64 0, i64 0)
  %110 = call i32 (i8*, ...) @printf(i8* getelementptr inbounds ([5 x i8], [5 x i8]* @.str.5, i64 0, i64 0), i8* %109)
  br label %111

111:                                              ; preds = %103, %100
  br label %112

112:                                              ; preds = %111
  %113 = load i32, i32* %2, align 4
  %114 = add nsw i32 %113, 1
  store i32 %114, i32* %2, align 4
  br label %13

115:                                              ; preds = %13
  ret void
}

; Function Attrs: nounwind
declare dso_local noalias i8* @malloc(i64) #1

declare dso_local i32 @__isoc99_scanf(i8*, ...) #2

declare dso_local i32 @printf(i8*, ...) #2


!llvm.module.flags = !{!0}
!llvm.ident = !{!1}

!0 = !{i32 1, !"wchar_size", i32 4}
!1 = !{!"clang version 10.0.0-4ubuntu1 "}
