; ModuleID = 'source-C-CXX/36/397.c'
source_filename = "source-C-CXX/36/397.c"
target datalayout = "e-m:e-p270:32:32-p271:32:32-p272:64:64-i64:64-f80:128-n8:16:32:64-S128"
target triple = "x86_64-pc-linux-gnu"

@.str = private unnamed_addr constant [3 x i8] c"%d\00", align 1
@.str.1 = private unnamed_addr constant [3 x i8] c"%s\00", align 1
@.str.2 = private unnamed_addr constant [5 x i8] c"%c%s\00", align 1
@.str.3 = private unnamed_addr constant [1 x i8] zeroinitializer, align 1
@.str.4 = private unnamed_addr constant [2 x i8] c"\0A\00", align 1
@.str.5 = private unnamed_addr constant [5 x i8] c"no%s\00", align 1

; Function Attrs: nofree nounwind sspstrong uwtable
define dso_local void @main() local_unnamed_addr #0 {
  %1 = alloca i32, align 4
  %2 = bitcast i32* %1 to i8*
  call void @llvm.lifetime.start.p0i8(i64 4, i8* nonnull %2) #5
  %3 = tail call noalias align 16 dereferenceable_or_null(100) i8* @malloc(i64 100) #5
  %4 = tail call noalias align 16 dereferenceable_or_null(400) i8* @malloc(i64 400) #5
  %5 = bitcast i8* %4 to i32*
  %6 = call i32 (i8*, ...) @__isoc99_scanf(i8* getelementptr inbounds ([3 x i8], [3 x i8]* @.str, i64 0, i64 0), i32* nonnull %1)
  %7 = load i32, i32* %1, align 4, !tbaa !5
  %8 = icmp sgt i32 %7, 0
  br i1 %8, label %9, label %59

9:                                                ; preds = %0
  %10 = getelementptr i8, i8* %4, i64 4
  br label %11

11:                                               ; preds = %9, %55
  %12 = phi i32 [ %56, %55 ], [ 0, %9 ]
  %13 = call i32 (i8*, ...) @__isoc99_scanf(i8* getelementptr inbounds ([3 x i8], [3 x i8]* @.str.1, i64 0, i64 0), i8* %3)
  call void @llvm.memset.p0i8.i64(i8* noundef nonnull align 4 dereferenceable(104) %10, i8 0, i64 104, i1 false)
  %14 = load i8, i8* %3, align 16, !tbaa !9
  %15 = icmp eq i8 %14, 0
  br i1 %15, label %49, label %17

16:                                               ; preds = %17
  br i1 %15, label %49, label %33

17:                                               ; preds = %11, %17
  %18 = phi i64 [ %25, %17 ], [ 0, %11 ]
  %19 = phi i8 [ %27, %17 ], [ %14, %11 ]
  %20 = sext i8 %19 to i64
  %21 = add nsw i64 %20, -96
  %22 = getelementptr inbounds i32, i32* %5, i64 %21
  %23 = load i32, i32* %22, align 4, !tbaa !5
  %24 = add nsw i32 %23, 1
  store i32 %24, i32* %22, align 4, !tbaa !5
  %25 = add nuw nsw i64 %18, 1
  %26 = getelementptr inbounds i8, i8* %3, i64 %25
  %27 = load i8, i8* %26, align 1, !tbaa !9
  %28 = icmp eq i8 %27, 0
  br i1 %28, label %16, label %17, !llvm.loop !10

29:                                               ; preds = %33
  %30 = getelementptr inbounds i8, i8* %3, i64 %41
  %31 = load i8, i8* %30, align 1, !tbaa !9
  %32 = icmp eq i8 %31, 0
  br i1 %32, label %49, label %33, !llvm.loop !12

33:                                               ; preds = %16, %29
  %34 = phi i64 [ %41, %29 ], [ 0, %16 ]
  %35 = phi i8 [ %31, %29 ], [ %14, %16 ]
  %36 = sext i8 %35 to i64
  %37 = add nsw i64 %36, -96
  %38 = getelementptr inbounds i32, i32* %5, i64 %37
  %39 = load i32, i32* %38, align 4, !tbaa !5
  %40 = icmp eq i32 %39, 1
  %41 = add nuw i64 %34, 1
  br i1 %40, label %42, label %29

42:                                               ; preds = %33
  %43 = sext i8 %35 to i32
  %44 = load i32, i32* %1, align 4, !tbaa !5
  %45 = add nsw i32 %44, -1
  %46 = icmp eq i32 %12, %45
  %47 = select i1 %46, i8* getelementptr inbounds ([1 x i8], [1 x i8]* @.str.3, i64 0, i64 0), i8* getelementptr inbounds ([2 x i8], [2 x i8]* @.str.4, i64 0, i64 0)
  %48 = call i32 (i8*, ...) @printf(i8* nonnull dereferenceable(1) getelementptr inbounds ([5 x i8], [5 x i8]* @.str.2, i64 0, i64 0), i32 %43, i8* %47)
  br label %55

49:                                               ; preds = %29, %11, %16
  %50 = load i32, i32* %1, align 4, !tbaa !5
  %51 = add nsw i32 %50, -1
  %52 = icmp eq i32 %12, %51
  %53 = select i1 %52, i8* getelementptr inbounds ([1 x i8], [1 x i8]* @.str.3, i64 0, i64 0), i8* getelementptr inbounds ([2 x i8], [2 x i8]* @.str.4, i64 0, i64 0)
  %54 = call i32 (i8*, ...) @printf(i8* nonnull dereferenceable(1) getelementptr inbounds ([5 x i8], [5 x i8]* @.str.5, i64 0, i64 0), i8* %53)
  br label %55

55:                                               ; preds = %42, %49
  %56 = add nuw nsw i32 %12, 1
  %57 = load i32, i32* %1, align 4, !tbaa !5
  %58 = icmp slt i32 %56, %57
  br i1 %58, label %11, label %59, !llvm.loop !13

59:                                               ; preds = %55, %0
  call void @llvm.lifetime.end.p0i8(i64 4, i8* nonnull %2) #5
  ret void
}

; Function Attrs: argmemonly mustprogress nofree nosync nounwind willreturn
declare void @llvm.lifetime.start.p0i8(i64 immarg, i8* nocapture) #1

; Function Attrs: inaccessiblememonly mustprogress nofree nounwind willreturn
declare noalias noundef align 16 i8* @malloc(i64 noundef) local_unnamed_addr #2

; Function Attrs: nofree nounwind
declare noundef i32 @__isoc99_scanf(i8* nocapture noundef readonly, ...) local_unnamed_addr #3

; Function Attrs: nofree nounwind
declare noundef i32 @printf(i8* nocapture noundef readonly, ...) local_unnamed_addr #3

; Function Attrs: argmemonly mustprogress nofree nosync nounwind willreturn
declare void @llvm.lifetime.end.p0i8(i64 immarg, i8* nocapture) #1

; Function Attrs: argmemonly nofree nounwind willreturn writeonly
declare void @llvm.memset.p0i8.i64(i8* nocapture writeonly, i8, i64, i1 immarg) #4


!llvm.module.flags = !{!0, !1, !2, !3}
!llvm.ident = !{!4}

!0 = !{i32 1, !"wchar_size", i32 4}
!1 = !{i32 7, !"PIC Level", i32 2}
!2 = !{i32 7, !"PIE Level", i32 2}
!3 = !{i32 7, !"uwtable", i32 1}
!4 = !{!"clang version 13.0.0"}
!5 = !{!6, !6, i64 0}
!6 = !{!"int", !7, i64 0}
!7 = !{!"omnipotent char", !8, i64 0}
!8 = !{!"Simple C/C++ TBAA"}
!9 = !{!7, !7, i64 0}
!10 = distinct !{!10, !11}
!11 = !{!"llvm.loop.mustprogress"}
!12 = distinct !{!12, !11}
!13 = distinct !{!13, !11}
